target datalayout = "e-m:e-p270:32:32-p271:32:32-p272:64:64-i64:64-i128:128-f80:128-n8:16:32:64-S128"
target triple = "x86_64-pc-linux-gnu"

%struct.crypto_ex_data_st = type { ptr }
%struct.ssl_st = type { i32, i16, i16, ptr, ptr, ptr, ptr, ptr, i32, i32, ptr, ptr, i32, i32, ptr, ptr, ptr, ptr, ptr, ptr, ptr, ptr, i32, i32, [32 x i8], ptr, ptr, ptr, ptr, ptr, ptr, ptr, i64, %struct.crypto_ex_data_st, ptr, i32, i32, i32, i32, i16, ptr, i32, i64, ptr, ptr, ptr, ptr, ptr, ptr, i32, i32, ptr, ptr, i8, i8, i32 }
%struct.ssl3_state_st = type { [8 x i8], [8 x i8], [32 x i8], [32 x i8], i8, i8, %struct.ssl3_buffer_st, %struct.ssl3_buffer_st, %struct.ssl3_record_st, i8, i32, i32, i32, i32, ptr, ptr, %struct.env_md_ctx_st, %struct.env_md_ctx_st, i8, i32, [2 x i8], i32, i8, i8, ptr, ptr, ptr, %struct.anon, [64 x i8], i8, [64 x i8], i8, i32, i32, ptr, i64, ptr, i64, i8, [64 x i8] }
%struct.ssl3_buffer_st = type { ptr, i16, i16, i16 }
%struct.ssl3_record_st = type { i8, i16, ptr }
%struct.env_md_ctx_st = type { ptr, ptr, ptr, ptr }
%struct.anon = type { [64 x i8], i32, [64 x i8], i32, i64, i32, ptr, i32, i32, %union.anon, %union.anon.0, i8, i32, ptr, ptr, i64, ptr, i8, i8, i8, i8, i32, i8, ptr, i64, i8, ptr, i8, i8, i8, %struct.ssl_ecdh_ctx_st, ptr, i16 }
%union.anon = type { i32 }
%union.anon.0 = type { i16 }
%struct.ssl_ecdh_ctx_st = type { ptr, ptr }
%struct.ssl_aead_ctx_st = type { ptr, %struct.evp_aead_ctx_st, [12 x i8], i8, i8, i8, i8, i8, i8, i8 }
%struct.evp_aead_ctx_st = type { ptr, ptr }

; Function Attrs: nounwind uwtable
define hidden i32 @SSL_get_ivs(ptr noundef %0, ptr noundef %1, ptr noundef %2, ptr noundef %3) #0 {
  %5 = alloca i32, align 4
  %6 = alloca ptr, align 8
  %7 = alloca ptr, align 8
  %8 = alloca ptr, align 8
  %9 = alloca ptr, align 8
  %10 = alloca i64, align 8
  %11 = alloca i32, align 4
  store ptr %0, ptr %6, align 8, !tbaa !80
  store ptr %1, ptr %7, align 8, !tbaa !210
  store ptr %2, ptr %8, align 8, !tbaa !210
  store ptr %3, ptr %9, align 8, !tbaa !172
  %12 = load ptr, ptr %6, align 8, !tbaa !80
  %13 = getelementptr inbounds nuw %struct.ssl_st, ptr %12, i32 0, i32 14
  %14 = load ptr, ptr %13, align 8, !tbaa !152
  %15 = getelementptr inbounds nuw %struct.ssl3_state_st, ptr %14, i32 0, i32 24
  %16 = load ptr, ptr %15, align 8, !tbaa !274
  %17 = icmp eq ptr %16, null
  br i1 %17, label %25, label %18

18:                                               ; preds = %4
  %19 = load ptr, ptr %6, align 8, !tbaa !80
  %20 = getelementptr inbounds nuw %struct.ssl_st, ptr %19, i32 0, i32 14
  %21 = load ptr, ptr %20, align 8, !tbaa !152
  %22 = getelementptr inbounds nuw %struct.ssl3_state_st, ptr %21, i32 0, i32 25
  %23 = load ptr, ptr %22, align 8, !tbaa !252
  %24 = icmp eq ptr %23, null
  br i1 %24, label %25, label %26

25:                                               ; preds = %18, %4
  store i32 0, ptr %5, align 4
  br label %55

26:                                               ; preds = %18
  call void @llvm.lifetime.start.p0(i64 8, ptr %10) #8
  %27 = load ptr, ptr %6, align 8, !tbaa !80
  %28 = getelementptr inbounds nuw %struct.ssl_st, ptr %27, i32 0, i32 14
  %29 = load ptr, ptr %28, align 8, !tbaa !152
  %30 = getelementptr inbounds nuw %struct.ssl3_state_st, ptr %29, i32 0, i32 24
  %31 = load ptr, ptr %30, align 8, !tbaa !274
  %32 = getelementptr inbounds nuw %struct.ssl_aead_ctx_st, ptr %31, i32 0, i32 1
  %33 = load ptr, ptr %7, align 8, !tbaa !210
  %34 = load ptr, ptr %9, align 8, !tbaa !172
  %35 = call i32 @EVP_AEAD_CTX_get_iv(ptr noundef %32, ptr noundef %33, ptr noundef %34)
  %36 = icmp ne i32 %35, 0
  br i1 %36, label %37, label %52

37:                                               ; preds = %26
  %38 = load ptr, ptr %6, align 8, !tbaa !80
  %39 = getelementptr inbounds nuw %struct.ssl_st, ptr %38, i32 0, i32 14
  %40 = load ptr, ptr %39, align 8, !tbaa !152
  %41 = getelementptr inbounds nuw %struct.ssl3_state_st, ptr %40, i32 0, i32 25
  %42 = load ptr, ptr %41, align 8, !tbaa !252
  %43 = getelementptr inbounds nuw %struct.ssl_aead_ctx_st, ptr %42, i32 0, i32 1
  %44 = load ptr, ptr %8, align 8, !tbaa !210
  %45 = call i32 @EVP_AEAD_CTX_get_iv(ptr noundef %43, ptr noundef %44, ptr noundef %10)
  %46 = icmp ne i32 %45, 0
  br i1 %46, label %47, label %52

47:                                               ; preds = %37
  %48 = load ptr, ptr %9, align 8, !tbaa !172
  %49 = load i64, ptr %48, align 8, !tbaa !174
  %50 = load i64, ptr %10, align 8, !tbaa !174
  %51 = icmp ne i64 %49, %50
  br i1 %51, label %52, label %53

52:                                               ; preds = %47, %37, %26
  store i32 0, ptr %5, align 4
  store i32 1, ptr %11, align 4
  br label %54

53:                                               ; preds = %47
  store i32 1, ptr %5, align 4
  store i32 1, ptr %11, align 4
  br label %54

54:                                               ; preds = %53, %52
  call void @llvm.lifetime.end.p0(i64 8, ptr %10) #8
  br label %55

55:                                               ; preds = %54, %25
  %56 = load i32, ptr %5, align 4
  ret i32 %56
}