; Function Attrs: nounwind uwtable
define hidden range(i32 0, 2) i32 @SSL_get_ivs(ptr noundef readonly captures(none) %0, ptr noundef %1, ptr noundef %2, ptr noundef %3) local_unnamed_addr #0 {
  %5 = alloca i64, align 8
  %6 = getelementptr inbounds nuw i8, ptr %0, i64 80
  %7 = load ptr, ptr %6, align 8, !tbaa !136
  %8 = getelementptr inbounds nuw i8, ptr %7, i64 264
  %9 = load ptr, ptr %8, align 8, !tbaa !242
  %10 = icmp eq ptr %9, null
  br i1 %10, label %28, label %11

11:                                               ; preds = %4
  %12 = getelementptr inbounds nuw i8, ptr %7, i64 272
  %13 = load ptr, ptr %12, align 8, !tbaa !227
  %14 = icmp eq ptr %13, null
  br i1 %14, label %28, label %15

15:                                               ; preds = %11
  call void @llvm.lifetime.start.p0(i64 8, ptr nonnull %5) #21
  %16 = getelementptr inbounds nuw i8, ptr %9, i64 8
  %17 = tail call i32 @EVP_AEAD_CTX_get_iv(ptr noundef nonnull %16, ptr noundef %1, ptr noundef %3) #21
  %.not = icmp eq i32 %17, 0
  br i1 %.not, label %27, label %18

18:                                               ; preds = %15
  %19 = load ptr, ptr %6, align 8, !tbaa !136
  %20 = getelementptr inbounds nuw i8, ptr %19, i64 272
  %21 = load ptr, ptr %20, align 8, !tbaa !227
  %22 = getelementptr inbounds nuw i8, ptr %21, i64 8
  %23 = call i32 @EVP_AEAD_CTX_get_iv(ptr noundef nonnull %22, ptr noundef %2, ptr noundef nonnull %5) #21
  %.not8 = icmp eq i32 %23, 0
  br i1 %.not8, label %27, label %24

24:                                               ; preds = %18
  %25 = load i64, ptr %3, align 8, !tbaa !160
  %26 = load i64, ptr %5, align 8, !tbaa !160
  %.not9 = icmp eq i64 %25, %26
  %spec.select = zext i1 %.not9 to i32
  br label %27

27:                                               ; preds = %24, %15, %18
  %.1 = phi i32 [ 0, %18 ], [ 0, %15 ], [ %spec.select, %24 ]
  call void @llvm.lifetime.end.p0(i64 8, ptr nonnull %5) #21
  br label %28

28:                                               ; preds = %4, %11, %27
  %.0 = phi i32 [ %.1, %27 ], [ 0, %11 ], [ 0, %4 ]
  ret i32 %.0
}